target datalayout = "e-m:e-p270:32:32-p271:32:32-p272:64:64-i64:64-i128:128-f80:128-n8:16:32:64-S128"
target triple = "x86_64-pc-linux-gnu"

%struct.kmac_data_st = type { ptr, ptr, %struct.PROV_DIGEST, i64, i64, i64, i32, [672 x i8], [516 x i8] }
%struct.PROV_DIGEST = type { ptr, ptr, ptr }
%struct.ossl_param_st = type { ptr, i32, ptr, i64, i64 }

@.str.2 = private unnamed_addr constant [54 x i8] c"../openssl/providers/implementations/macs/kmac_prov.c\00", align 1
@.str.3 = private unnamed_addr constant [7 x i8] c"custom\00", align 1
@__func__.encode_string = private unnamed_addr constant [14 x i8] c"encode_string\00", align 1
@.str.5 = private unnamed_addr constant [5 x i8] c"size\00", align 1
@.str.8 = private unnamed_addr constant [4 x i8] c"xof\00", align 1
@.str.9 = private unnamed_addr constant [4 x i8] c"key\00", align 1
@__func__.kmac_set_ctx_params = private unnamed_addr constant [20 x i8] c"kmac_set_ctx_params\00", align 1

; Function Attrs: nounwind uwtable
define internal i32 @get_encode_size(i64 noundef %0) #0 {
  %2 = alloca i64, align 8
  %3 = alloca i32, align 4
  %4 = alloca i32, align 4
  store i64 %0, ptr %2, align 8, !tbaa !24
  call void @llvm.lifetime.start.p0(i64 4, ptr %3) #7
  store i32 0, ptr %3, align 4, !tbaa !28
  call void @llvm.lifetime.start.p0(i64 4, ptr %4) #7
  store i32 8, ptr %4, align 4, !tbaa !28
  br label %5

5:                                                ; preds = %14, %1
  %6 = load i64, ptr %2, align 8, !tbaa !24
  %7 = icmp ne i64 %6, 0
  br i1 %7, label %8, label %12

8:                                                ; preds = %5
  %9 = load i32, ptr %3, align 4, !tbaa !28
  %10 = load i32, ptr %4, align 4, !tbaa !28
  %11 = icmp ult i32 %9, %10
  br label %12

12:                                               ; preds = %8, %5
  %13 = phi i1 [ false, %5 ], [ %11, %8 ]
  br i1 %13, label %14, label %19

14:                                               ; preds = %12
  %15 = load i32, ptr %3, align 4, !tbaa !28
  %16 = add i32 %15, 1
  store i32 %16, ptr %3, align 4, !tbaa !28
  %17 = load i64, ptr %2, align 8, !tbaa !24
  %18 = lshr i64 %17, 8
  store i64 %18, ptr %2, align 8, !tbaa !24
  br label %5, !llvm.loop !38

19:                                               ; preds = %12
  %20 = load i32, ptr %3, align 4, !tbaa !28
  %21 = icmp eq i32 %20, 0
  br i1 %21, label %22, label %23

22:                                               ; preds = %19
  store i32 1, ptr %3, align 4, !tbaa !28
  br label %23

23:                                               ; preds = %22, %19
  %24 = load i32, ptr %3, align 4, !tbaa !28
  call void @llvm.lifetime.end.p0(i64 4, ptr %4) #7
  call void @llvm.lifetime.end.p0(i64 4, ptr %3) #7
  ret i32 %24
}

; Function Attrs: nounwind uwtable
define internal i32 @encode_string(ptr noundef %0, i64 noundef %1, ptr noundef %2, ptr noundef %3, i64 noundef %4) #0 {
  %6 = alloca i32, align 4
  %7 = alloca ptr, align 8
  %8 = alloca i64, align 8
  %9 = alloca ptr, align 8
  %10 = alloca ptr, align 8
  %11 = alloca i64, align 8
  %12 = alloca i64, align 8
  %13 = alloca i64, align 8
  %14 = alloca i64, align 8
  %15 = alloca i64, align 8
  %16 = alloca i32, align 4
  store ptr %0, ptr %7, align 8, !tbaa !22
  store i64 %1, ptr %8, align 8, !tbaa !24
  store ptr %2, ptr %9, align 8, !tbaa !29
  store ptr %3, ptr %10, align 8, !tbaa !22
  store i64 %4, ptr %11, align 8, !tbaa !24
  %17 = load ptr, ptr %10, align 8, !tbaa !22
  %18 = icmp eq ptr %17, null
  br i1 %18, label %19, label %21

19:                                               ; preds = %5
  %20 = load ptr, ptr %9, align 8, !tbaa !29
  store i64 0, ptr %20, align 8, !tbaa !24
  br label %68

21:                                               ; preds = %5
  call void @llvm.lifetime.start.p0(i64 8, ptr %12) #7
  call void @llvm.lifetime.start.p0(i64 8, ptr %13) #7
  call void @llvm.lifetime.start.p0(i64 8, ptr %14) #7
  call void @llvm.lifetime.start.p0(i64 8, ptr %15) #7
  %22 = load i64, ptr %11, align 8, !tbaa !24
  %23 = mul i64 8, %22
  store i64 %23, ptr %13, align 8, !tbaa !24
  %24 = load i64, ptr %13, align 8, !tbaa !24
  %25 = call i32 @get_encode_size(i64 noundef %24)
  %26 = zext i32 %25 to i64
  store i64 %26, ptr %14, align 8, !tbaa !24
  %27 = load i64, ptr %14, align 8, !tbaa !24
  %28 = add i64 1, %27
  %29 = load i64, ptr %11, align 8, !tbaa !24
  %30 = add i64 %28, %29
  store i64 %30, ptr %15, align 8, !tbaa !24
  %31 = load i64, ptr %15, align 8, !tbaa !24
  %32 = load i64, ptr %8, align 8, !tbaa !24
  %33 = icmp ugt i64 %31, %32
  br i1 %33, label %34, label %35

34:                                               ; preds = %21
  call void @ERR_new()
  call void @ERR_set_debug(ptr noundef @.str.2, i32 noundef 575, ptr noundef @__func__.encode_string)
  call void (i32, i32, ptr, ...) @ERR_set_error(i32 noundef 57, i32 noundef 202, ptr noundef null)
  store i32 0, ptr %6, align 4
  store i32 1, ptr %16, align 4
  br label %65

35:                                               ; preds = %21
  %36 = load i64, ptr %14, align 8, !tbaa !24
  %37 = trunc i64 %36 to i8
  %38 = load ptr, ptr %7, align 8, !tbaa !22
  %39 = getelementptr inbounds i8, ptr %38, i64 0
  store i8 %37, ptr %39, align 1, !tbaa !35
  %40 = load i64, ptr %14, align 8, !tbaa !24
  store i64 %40, ptr %12, align 8, !tbaa !24
  br label %41

41:                                               ; preds = %53, %35
  %42 = load i64, ptr %12, align 8, !tbaa !24
  %43 = icmp ugt i64 %42, 0
  br i1 %43, label %44, label %56

44:                                               ; preds = %41
  %45 = load i64, ptr %13, align 8, !tbaa !24
  %46 = and i64 %45, 255
  %47 = trunc i64 %46 to i8
  %48 = load ptr, ptr %7, align 8, !tbaa !22
  %49 = load i64, ptr %12, align 8, !tbaa !24
  %50 = getelementptr inbounds nuw i8, ptr %48, i64 %49
  store i8 %47, ptr %50, align 1, !tbaa !35
  %51 = load i64, ptr %13, align 8, !tbaa !24
  %52 = lshr i64 %51, 8
  store i64 %52, ptr %13, align 8, !tbaa !24
  br label %53

53:                                               ; preds = %44
  %54 = load i64, ptr %12, align 8, !tbaa !24
  %55 = add i64 %54, -1
  store i64 %55, ptr %12, align 8, !tbaa !24
  br label %41, !llvm.loop !36

56:                                               ; preds = %41
  %57 = load ptr, ptr %7, align 8, !tbaa !22
  %58 = load i64, ptr %14, align 8, !tbaa !24
  %59 = getelementptr inbounds nuw i8, ptr %57, i64 %58
  %60 = getelementptr inbounds i8, ptr %59, i64 1
  %61 = load ptr, ptr %10, align 8, !tbaa !22
  %62 = load i64, ptr %11, align 8, !tbaa !24
  call void @llvm.memcpy.p0.p0.i64(ptr align 1 %60, ptr align 1 %61, i64 %62, i1 false)
  %63 = load i64, ptr %15, align 8, !tbaa !24
  %64 = load ptr, ptr %9, align 8, !tbaa !29
  store i64 %63, ptr %64, align 8, !tbaa !24
  store i32 0, ptr %16, align 4
  br label %65

65:                                               ; preds = %56, %34
  call void @llvm.lifetime.end.p0(i64 8, ptr %15) #7
  call void @llvm.lifetime.end.p0(i64 8, ptr %14) #7
  call void @llvm.lifetime.end.p0(i64 8, ptr %13) #7
  call void @llvm.lifetime.end.p0(i64 8, ptr %12) #7
  %66 = load i32, ptr %16, align 4
  switch i32 %66, label %71 [
    i32 0, label %67
    i32 1, label %69
  ]

67:                                               ; preds = %65
  br label %68

68:                                               ; preds = %67, %19
  store i32 1, ptr %6, align 4
  br label %69

69:                                               ; preds = %68, %65
  %70 = load i32, ptr %6, align 4
  ret i32 %70

71:                                               ; preds = %65
  unreachable
}

; Function Attrs: inlinehint nounwind uwtable
define internal i32 @ossl_param_is_empty(ptr noundef %0) #6 {
  %2 = alloca ptr, align 8
  store ptr %0, ptr %2, align 8, !tbaa !25
  %3 = load ptr, ptr %2, align 8, !tbaa !25
  %4 = icmp eq ptr %3, null
  br i1 %4, label %10, label %5

5:                                                ; preds = %1
  %6 = load ptr, ptr %2, align 8, !tbaa !25
  %7 = getelementptr inbounds nuw %struct.ossl_param_st, ptr %6, i32 0, i32 0
  %8 = load ptr, ptr %7, align 8, !tbaa !40
  %9 = icmp eq ptr %8, null
  br label %10

10:                                               ; preds = %5, %1
  %11 = phi i1 [ true, %1 ], [ %9, %5 ]
  %12 = zext i1 %11 to i32
  ret i32 %12
}

; Function Attrs: nounwind uwtable
define internal i32 @kmac_set_ctx_params(ptr noundef %0, ptr noundef %1) #0 {
  %3 = alloca i32, align 4
  %4 = alloca ptr, align 8
  %5 = alloca ptr, align 8
  %6 = alloca ptr, align 8
  %7 = alloca ptr, align 8
  %8 = alloca i32, align 4
  %9 = alloca i64, align 8
  store ptr %0, ptr %4, align 8, !tbaa !3
  store ptr %1, ptr %5, align 8, !tbaa !25
  call void @llvm.lifetime.start.p0(i64 8, ptr %6) #7
  %10 = load ptr, ptr %4, align 8, !tbaa !3
  store ptr %10, ptr %6, align 8, !tbaa !7
  call void @llvm.lifetime.start.p0(i64 8, ptr %7) #7
  %11 = load ptr, ptr %5, align 8, !tbaa !25
  %12 = call i32 @ossl_param_is_empty(ptr noundef %11)
  %13 = icmp ne i32 %12, 0
  br i1 %13, label %14, label %15

14:                                               ; preds = %2
  store i32 1, ptr %3, align 4
  store i32 1, ptr %8, align 4
  br label %88

15:                                               ; preds = %2
  %16 = load ptr, ptr %5, align 8, !tbaa !25
  %17 = call ptr @OSSL_PARAM_locate_const(ptr noundef %16, ptr noundef @.str.8)
  store ptr %17, ptr %7, align 8, !tbaa !25
  %18 = icmp ne ptr %17, null
  br i1 %18, label %19, label %26

19:                                               ; preds = %15
  %20 = load ptr, ptr %7, align 8, !tbaa !25
  %21 = load ptr, ptr %6, align 8, !tbaa !7
  %22 = getelementptr inbounds nuw %struct.kmac_data_st, ptr %21, i32 0, i32 6
  %23 = call i32 @OSSL_PARAM_get_int(ptr noundef %20, ptr noundef %22)
  %24 = icmp ne i32 %23, 0
  br i1 %24, label %26, label %25

25:                                               ; preds = %19
  store i32 0, ptr %3, align 4
  store i32 1, ptr %8, align 4
  br label %88

26:                                               ; preds = %19, %15
  %27 = load ptr, ptr %5, align 8, !tbaa !25
  %28 = call ptr @OSSL_PARAM_locate_const(ptr noundef %27, ptr noundef @.str.5)
  store ptr %28, ptr %7, align 8, !tbaa !25
  %29 = icmp ne ptr %28, null
  br i1 %29, label %30, label %46

30:                                               ; preds = %26
  call void @llvm.lifetime.start.p0(i64 8, ptr %9) #7
  store i64 0, ptr %9, align 8, !tbaa !24
  %31 = load ptr, ptr %7, align 8, !tbaa !25
  %32 = call i32 @OSSL_PARAM_get_size_t(ptr noundef %31, ptr noundef %9)
  %33 = icmp ne i32 %32, 0
  br i1 %33, label %35, label %34

34:                                               ; preds = %30
  store i32 0, ptr %3, align 4
  store i32 1, ptr %8, align 4
  br label %43

35:                                               ; preds = %30
  %36 = load i64, ptr %9, align 8, !tbaa !24
  %37 = icmp ugt i64 %36, 2097151
  br i1 %37, label %38, label %39

38:                                               ; preds = %35
  call void @ERR_new()
  call void @ERR_set_debug(ptr noundef @.str.2, i32 noundef 474, ptr noundef @__func__.kmac_set_ctx_params)
  call void (i32, i32, ptr, ...) @ERR_set_error(i32 noundef 57, i32 noundef 217, ptr noundef null)
  store i32 0, ptr %3, align 4
  store i32 1, ptr %8, align 4
  br label %43

39:                                               ; preds = %35
  %40 = load i64, ptr %9, align 8, !tbaa !24
  %41 = load ptr, ptr %6, align 8, !tbaa !7
  %42 = getelementptr inbounds nuw %struct.kmac_data_st, ptr %41, i32 0, i32 3
  store i64 %40, ptr %42, align 8, !tbaa !18
  store i32 0, ptr %8, align 4
  br label %43

43:                                               ; preds = %39, %38, %34
  call void @llvm.lifetime.end.p0(i64 8, ptr %9) #7
  %44 = load i32, ptr %8, align 4
  switch i32 %44, label %88 [
    i32 0, label %45
  ]

45:                                               ; preds = %43
  br label %46

46:                                               ; preds = %45, %26
  %47 = load ptr, ptr %5, align 8, !tbaa !25
  %48 = call ptr @OSSL_PARAM_locate_const(ptr noundef %47, ptr noundef @.str.9)
  store ptr %48, ptr %7, align 8, !tbaa !25
  %49 = icmp ne ptr %48, null
  br i1 %49, label %50, label %61

50:                                               ; preds = %46
  %51 = load ptr, ptr %6, align 8, !tbaa !7
  %52 = load ptr, ptr %7, align 8, !tbaa !25
  %53 = getelementptr inbounds nuw %struct.ossl_param_st, ptr %52, i32 0, i32 2
  %54 = load ptr, ptr %53, align 8, !tbaa !31
  %55 = load ptr, ptr %7, align 8, !tbaa !25
  %56 = getelementptr inbounds nuw %struct.ossl_param_st, ptr %55, i32 0, i32 3
  %57 = load i64, ptr %56, align 8, !tbaa !33
  %58 = call i32 @kmac_setkey(ptr noundef %51, ptr noundef %54, i64 noundef %57)
  %59 = icmp ne i32 %58, 0
  br i1 %59, label %61, label %60

60:                                               ; preds = %50
  store i32 0, ptr %3, align 4
  store i32 1, ptr %8, align 4
  br label %88

61:                                               ; preds = %50, %46
  %62 = load ptr, ptr %5, align 8, !tbaa !25
  %63 = call ptr @OSSL_PARAM_locate_const(ptr noundef %62, ptr noundef @.str.3)
  store ptr %63, ptr %7, align 8, !tbaa !25
  %64 = icmp ne ptr %63, null
  br i1 %64, label %65, label %87

65:                                               ; preds = %61
  %66 = load ptr, ptr %7, align 8, !tbaa !25
  %67 = getelementptr inbounds nuw %struct.ossl_param_st, ptr %66, i32 0, i32 3
  %68 = load i64, ptr %67, align 8, !tbaa !33
  %69 = icmp ugt i64 %68, 512
  br i1 %69, label %70, label %71

70:                                               ; preds = %65
  call void @ERR_new()
  call void @ERR_set_debug(ptr noundef @.str.2, i32 noundef 497, ptr noundef @__func__.kmac_set_ctx_params)
  call void (i32, i32, ptr, ...) @ERR_set_error(i32 noundef 57, i32 noundef 111, ptr noundef null)
  store i32 0, ptr %3, align 4
  store i32 1, ptr %8, align 4
  br label %88

71:                                               ; preds = %65
  %72 = load ptr, ptr %6, align 8, !tbaa !7
  %73 = getelementptr inbounds nuw %struct.kmac_data_st, ptr %72, i32 0, i32 8
  %74 = getelementptr inbounds [516 x i8], ptr %73, i64 0, i64 0
  %75 = load ptr, ptr %6, align 8, !tbaa !7
  %76 = getelementptr inbounds nuw %struct.kmac_data_st, ptr %75, i32 0, i32 5
  %77 = load ptr, ptr %7, align 8, !tbaa !25
  %78 = getelementptr inbounds nuw %struct.ossl_param_st, ptr %77, i32 0, i32 2
  %79 = load ptr, ptr %78, align 8, !tbaa !31
  %80 = load ptr, ptr %7, align 8, !tbaa !25
  %81 = getelementptr inbounds nuw %struct.ossl_param_st, ptr %80, i32 0, i32 3
  %82 = load i64, ptr %81, align 8, !tbaa !33
  %83 = call i32 @encode_string(ptr noundef %74, i64 noundef 516, ptr noundef %76, ptr noundef %79, i64 noundef %82)
  %84 = icmp ne i32 %83, 0
  br i1 %84, label %86, label %85

85:                                               ; preds = %71
  store i32 0, ptr %3, align 4
  store i32 1, ptr %8, align 4
  br label %88

86:                                               ; preds = %71
  br label %87

87:                                               ; preds = %86, %61
  store i32 1, ptr %3, align 4
  store i32 1, ptr %8, align 4
  br label %88

88:                                               ; preds = %87, %85, %70, %60, %43, %25, %14
  call void @llvm.lifetime.end.p0(i64 8, ptr %7) #7
  call void @llvm.lifetime.end.p0(i64 8, ptr %6) #7
  %89 = load i32, ptr %3, align 4
  ret i32 %89
}