; Function Attrs: nounwind uwtable
define internal range(i32 0, 2) i32 @kmac_set_ctx_params(ptr noundef %0, ptr noundef %1) #0 {
  %3 = alloca i64, align 8
  %4 = icmp eq ptr %1, null
  br i1 %4, label %ossl_param_is_empty.exit.thread, label %ossl_param_is_empty.exit

ossl_param_is_empty.exit:                         ; preds = %2
  %5 = load ptr, ptr %1, align 8, !tbaa !25
  %.not = icmp eq ptr %5, null
  br i1 %.not, label %ossl_param_is_empty.exit.thread, label %6

6:                                                ; preds = %ossl_param_is_empty.exit
  %7 = tail call ptr @OSSL_PARAM_locate_const(ptr noundef nonnull %1, ptr noundef nonnull @.str.8) #7
  %.not26 = icmp eq ptr %7, null
  br i1 %.not26, label %11, label %8

8:                                                ; preds = %6
  %9 = getelementptr inbounds nuw i8, ptr %0, i64 64
  %10 = tail call i32 @OSSL_PARAM_get_int(ptr noundef nonnull %7, ptr noundef nonnull %9) #7
  %.not27 = icmp eq i32 %10, 0
  br i1 %.not27, label %ossl_param_is_empty.exit.thread, label %11

11:                                               ; preds = %8, %6
  %12 = tail call ptr @OSSL_PARAM_locate_const(ptr noundef nonnull %1, ptr noundef nonnull @.str.5) #7
  %.not28 = icmp eq ptr %12, null
  br i1 %.not28, label %21, label %13

13:                                               ; preds = %11
  call void @llvm.lifetime.start.p0(i64 8, ptr nonnull %3) #7
  store i64 0, ptr %3, align 8, !tbaa !24
  %14 = call i32 @OSSL_PARAM_get_size_t(ptr noundef nonnull %12, ptr noundef nonnull %3) #7
  %.not29 = icmp eq i32 %14, 0
  br i1 %.not29, label %.critedge, label %15

15:                                               ; preds = %13
  %16 = load i64, ptr %3, align 8, !tbaa !24
  %17 = icmp ugt i64 %16, 2097151
  br i1 %17, label %18, label %19

18:                                               ; preds = %15
  call void @ERR_new() #7
  call void @ERR_set_debug(ptr noundef nonnull @.str.2, i32 noundef 474, ptr noundef nonnull @__func__.kmac_set_ctx_params) #7
  call void (i32, i32, ptr, ...) @ERR_set_error(i32 noundef 57, i32 noundef 217, ptr noundef null) #7
  br label %.critedge

19:                                               ; preds = %15
  %20 = getelementptr inbounds nuw i8, ptr %0, i64 40
  store i64 %16, ptr %20, align 8, !tbaa !17
  call void @llvm.lifetime.end.p0(i64 8, ptr nonnull %3) #7
  br label %21

21:                                               ; preds = %19, %11
  %22 = call ptr @OSSL_PARAM_locate_const(ptr noundef nonnull %1, ptr noundef nonnull @.str.9) #7
  %.not30 = icmp eq ptr %22, null
  br i1 %.not30, label %29, label %23

23:                                               ; preds = %21
  %24 = getelementptr inbounds nuw i8, ptr %22, i64 16
  %25 = load ptr, ptr %24, align 8, !tbaa !28
  %26 = getelementptr inbounds nuw i8, ptr %22, i64 24
  %27 = load i64, ptr %26, align 8, !tbaa !29
  %28 = call fastcc i32 @kmac_setkey(ptr noundef %0, ptr noundef %25, i64 noundef %27)
  %.not31 = icmp eq i32 %28, 0
  br i1 %.not31, label %ossl_param_is_empty.exit.thread, label %29

29:                                               ; preds = %23, %21
  %30 = call ptr @OSSL_PARAM_locate_const(ptr noundef nonnull %1, ptr noundef nonnull @.str.3) #7
  %.not32 = icmp eq ptr %30, null
  br i1 %.not32, label %ossl_param_is_empty.exit.thread, label %31

31:                                               ; preds = %29
  %32 = getelementptr inbounds nuw i8, ptr %30, i64 24
  %33 = load i64, ptr %32, align 8, !tbaa !29
  %34 = icmp ugt i64 %33, 512
  br i1 %34, label %35, label %36

35:                                               ; preds = %31
  call void @ERR_new() #7
  call void @ERR_set_debug(ptr noundef nonnull @.str.2, i32 noundef 497, ptr noundef nonnull @__func__.kmac_set_ctx_params) #7
  call void (i32, i32, ptr, ...) @ERR_set_error(i32 noundef 57, i32 noundef 111, ptr noundef null) #7
  br label %ossl_param_is_empty.exit.thread

36:                                               ; preds = %31
  %37 = getelementptr inbounds nuw i8, ptr %0, i64 740
  %38 = getelementptr inbounds nuw i8, ptr %0, i64 56
  %39 = getelementptr inbounds nuw i8, ptr %30, i64 16
  %40 = load ptr, ptr %39, align 8, !tbaa !28
  %41 = icmp eq ptr %40, null
  br i1 %41, label %42, label %43

42:                                               ; preds = %36
  store i64 0, ptr %38, align 8, !tbaa !24
  br label %ossl_param_is_empty.exit.thread

43:                                               ; preds = %36
  %44 = shl nuw nsw i64 %33, 3
  %.not.i.i = icmp eq i64 %33, 0
  br i1 %.not.i.i, label %get_encode_size.exit.i, label %.lr.ph.i.i

.lr.ph.i.i:                                       ; preds = %43, %.lr.ph.i.i
  %.09.i.i = phi i64 [ %46, %.lr.ph.i.i ], [ %44, %43 ]
  %.078.i.i = phi i32 [ %45, %.lr.ph.i.i ], [ 0, %43 ]
  %45 = add nuw nsw i32 %.078.i.i, 1
  %46 = lshr i64 %.09.i.i, 8
  %47 = icmp samesign ugt i64 %.09.i.i, 255
  %48 = icmp samesign ult i32 %.078.i.i, 7
  %49 = select i1 %47, i1 %48, i1 false
  br i1 %49, label %.lr.ph.i.i, label %get_encode_size.exit.i, !llvm.loop !21

get_encode_size.exit.i:                           ; preds = %.lr.ph.i.i, %43
  %.07.lcssa.i.i = phi i32 [ 0, %43 ], [ %45, %.lr.ph.i.i ]
  %spec.store.select.i.i = call range(i32 1, 9) i32 @llvm.umax.i32(i32 %.07.lcssa.i.i, i32 1)
  %50 = zext nneg i32 %spec.store.select.i.i to i64
  %51 = add nuw nsw i64 %33, 1
  %52 = add nuw nsw i64 %51, %50
  %53 = icmp samesign ugt i64 %52, 516
  br i1 %53, label %encode_string.exit, label %54

54:                                               ; preds = %get_encode_size.exit.i
  %55 = trunc i32 %spec.store.select.i.i to i8
  store i8 %55, ptr %37, align 1, !tbaa !20
  br label %56

56:                                               ; preds = %56, %54
  %.02531.i = phi i64 [ %50, %54 ], [ %60, %56 ]
  %.02630.i = phi i64 [ %44, %54 ], [ %59, %56 ]
  %57 = trunc i64 %.02630.i to i8
  %58 = getelementptr inbounds nuw i8, ptr %37, i64 %.02531.i
  store i8 %57, ptr %58, align 1, !tbaa !20
  %59 = lshr i64 %.02630.i, 8
  %60 = add nsw i64 %.02531.i, -1
  %.not.i = icmp eq i64 %60, 0
  br i1 %.not.i, label %61, label %56, !llvm.loop !30

61:                                               ; preds = %56
  %62 = getelementptr inbounds nuw i8, ptr %37, i64 %50
  %63 = getelementptr inbounds nuw i8, ptr %62, i64 1
  call void @llvm.memcpy.p0.p0.i64(ptr nonnull align 1 %63, ptr nonnull readonly align 1 %40, i64 range(i64 0, 513) %33, i1 false)
  store i64 %52, ptr %38, align 8, !tbaa !24
  br label %ossl_param_is_empty.exit.thread

encode_string.exit:                               ; preds = %get_encode_size.exit.i
  call void @ERR_new() #7
  call void @ERR_set_debug(ptr noundef nonnull @.str.2, i32 noundef 575, ptr noundef nonnull @__func__.encode_string) #7
  call void (i32, i32, ptr, ...) @ERR_set_error(i32 noundef 57, i32 noundef 202, ptr noundef null) #7
  br label %ossl_param_is_empty.exit.thread

.critedge:                                        ; preds = %13, %18
  call void @llvm.lifetime.end.p0(i64 8, ptr nonnull %3) #7
  br label %ossl_param_is_empty.exit.thread

ossl_param_is_empty.exit.thread:                  ; preds = %42, %61, %2, %29, %encode_string.exit, %23, %.critedge, %8, %ossl_param_is_empty.exit, %35
  %.019 = phi i32 [ 0, %35 ], [ 1, %ossl_param_is_empty.exit ], [ 0, %8 ], [ 0, %.critedge ], [ 0, %23 ], [ 0, %encode_string.exit ], [ 1, %29 ], [ 1, %2 ], [ 1, %61 ], [ 1, %42 ]
  ret i32 %.019
}